(lp0
(S'cppflags'
p1
ccopy_reg
_reconstructor
p2
(cino.utils
SpaceList
p3
c__builtin__
list
p4
(lp5
S'-mmcu=atmega2560'
p6
aS'-DF_CPU=16000000L'
p7
aS'-DARDUINO=105'
p8
aS'-I/usr/share/arduino/hardware/arduino/cores/arduino'
p9
aS'-ffunction-sections'
p10
aS'-fdata-sections'
p11
aS'-g'
p12
aS'-Os'
p13
aS'-w'
p14
aS'-I/usr/share/arduino/hardware/arduino/variants/mega'
p15
atp16
Rp17
tp18
a(S'version.txt'
p19
S'/usr/share/arduino/lib/version.txt'
p20
tp21
a(S'cc'
p22
S'/usr/share/arduino/hardware/tools/avr/bin/avr-gcc'
p23
tp24
a(S'make'
p25
S'/usr/share/arduino/hardware/tools/avr/bin/make'
p26
tp27
a(S'build_dir'
p28
S'.build/mega2560'
p29
tp30
a(S'arduino_core_dir'
p31
S'/usr/share/arduino/hardware/arduino/cores/arduino'
p32
tp33
a(S'boards.txt'
p34
S'/usr/share/arduino/hardware/arduino/boards.txt'
p35
tp36
a(S'cxxflags'
p37
g2
(g3
g4
(lp38
S'-fno-exceptions'
p39
atp40
Rp41
tp42
a(S'arduino_variants_dir'
p43
S'/usr/share/arduino/hardware/arduino/variants'
p44
tp45
a(S'ar'
p46
S'/usr/share/arduino/hardware/tools/avr/bin/avr-ar'
p47
tp48
a(S'names'
p49
(dp50
S'cpp'
p51
S'%s.cpp'
p52
sS'obj'
p53
S'%s.o'
p54
sS'deps'
p55
S'%s.d'
p56
sS'lib'
p57
S'lib%s.a'
p58
stp59
a(S'cflags'
p60
g2
(g3
g4
(lp61
tp62
Rp63
tp64
a(S'ldflags'
p65
g2
(g3
g4
(lp66
g6
aS'-Wl,-Os'
p67
aS'-Wl,--gc-sections'
p68
atp69
Rp70
tp71
a(S'arduino_libraries_dir'
p72
S'/usr/share/arduino/libraries'
p73
tp74
a(S'arduino_lib_version'
p75
g2
(cino.environment
Version
p76
c__builtin__
tuple
p77
(I1
I0
I5
tp78
tp79
Rp80
tp81
a(S'objcopy'
p82
S'/usr/share/arduino/hardware/tools/avr/bin/avr-objcopy'
p83
tp84
a(S'board_models'
p85
cino.environment
BoardModels
p86
((lp87
(lp88
S'uno'
p89
a(dp90
S'build'
p91
(dp92
S'core'
p93
S'arduino'
p94
sS'mcu'
p95
S'atmega328p'
p96
sS'f_cpu'
p97
S'16000000L'
p98
sS'variant'
p99
S'standard'
p100
ssS'bootloader'
p101
(dp102
S'extended_fuses'
p103
S'0x05'
p104
sS'high_fuses'
p105
S'0xde'
p106
sS'low_fuses'
p107
S'0xff'
p108
sS'lock_bits'
p109
S'0x0F'
p110
sS'file'
p111
S'optiboot_atmega328.hex'
p112
sS'path'
p113
S'optiboot'
p114
sS'unlock_bits'
p115
S'0x3F'
p116
ssS'name'
p117
S'Arduino Uno'
p118
sS'upload'
p119
(dp120
S'speed'
p121
S'115200'
p122
sS'maximum_size'
p123
S'32256'
p124
sS'protocol'
p125
S'arduino'
p126
ssaa(lp127
S'atmega328'
p128
a(dp129
S'build'
p130
(dp131
S'core'
p132
S'arduino'
p133
sS'mcu'
p134
S'atmega328p'
p135
sS'f_cpu'
p136
S'16000000L'
p137
sS'variant'
p138
S'standard'
p139
ssS'bootloader'
p140
(dp141
S'extended_fuses'
p142
S'0x05'
p143
sS'high_fuses'
p144
S'0xDA'
p145
sS'low_fuses'
p146
S'0xFF'
p147
sS'lock_bits'
p148
S'0x0F'
p149
sS'file'
p150
S'ATmegaBOOT_168_atmega328.hex'
p151
sS'path'
p152
S'atmega'
p153
sS'unlock_bits'
p154
S'0x3F'
p155
ssS'name'
p156
S'Arduino Duemilanove w/ ATmega328'
p157
sS'upload'
p158
(dp159
S'speed'
p160
S'57600'
p161
sS'maximum_size'
p162
S'30720'
p163
sS'protocol'
p164
S'arduino'
p165
ssaa(lp166
S'diecimila'
p167
a(dp168
S'build'
p169
(dp170
S'core'
p171
S'arduino'
p172
sS'mcu'
p173
S'atmega168'
p174
sS'f_cpu'
p175
S'16000000L'
p176
sS'variant'
p177
S'standard'
p178
ssS'bootloader'
p179
(dp180
S'extended_fuses'
p181
S'0x00'
p182
sS'high_fuses'
p183
S'0xdd'
p184
sS'low_fuses'
p185
S'0xff'
p186
sS'lock_bits'
p187
S'0x0F'
p188
sS'file'
p189
S'ATmegaBOOT_168_diecimila.hex'
p190
sS'path'
p191
S'atmega'
p192
sS'unlock_bits'
p193
S'0x3F'
p194
ssS'name'
p195
S'Arduino Diecimila or Duemilanove w/ ATmega168'
p196
sS'upload'
p197
(dp198
S'speed'
p199
S'19200'
p200
sS'maximum_size'
p201
S'14336'
p202
sS'protocol'
p203
S'arduino'
p204
ssaa(lp205
S'nano328'
p206
a(dp207
S'build'
p208
(dp209
S'core'
p210
S'arduino'
p211
sS'mcu'
p212
S'atmega328p'
p213
sS'f_cpu'
p214
S'16000000L'
p215
sS'variant'
p216
S'eightanaloginputs'
p217
ssS'bootloader'
p218
(dp219
S'extended_fuses'
p220
S'0x05'
p221
sS'high_fuses'
p222
S'0xDA'
p223
sS'low_fuses'
p224
S'0xFF'
p225
sS'lock_bits'
p226
S'0x0F'
p227
sS'file'
p228
S'ATmegaBOOT_168_atmega328.hex'
p229
sS'path'
p230
S'atmega'
p231
sS'unlock_bits'
p232
S'0x3F'
p233
ssS'name'
p234
S'Arduino Nano w/ ATmega328'
p235
sS'upload'
p236
(dp237
S'speed'
p238
S'57600'
p239
sS'maximum_size'
p240
S'30720'
p241
sS'protocol'
p242
S'arduino'
p243
ssaa(lp244
S'nano'
p245
a(dp246
S'build'
p247
(dp248
S'core'
p249
S'arduino'
p250
sS'mcu'
p251
S'atmega168'
p252
sS'f_cpu'
p253
S'16000000L'
p254
sS'variant'
p255
S'eightanaloginputs'
p256
ssS'bootloader'
p257
(dp258
S'extended_fuses'
p259
S'0x00'
p260
sS'high_fuses'
p261
S'0xdd'
p262
sS'low_fuses'
p263
S'0xff'
p264
sS'lock_bits'
p265
S'0x0F'
p266
sS'file'
p267
S'ATmegaBOOT_168_diecimila.hex'
p268
sS'path'
p269
S'atmega'
p270
sS'unlock_bits'
p271
S'0x3F'
p272
ssS'name'
p273
S'Arduino Nano w/ ATmega168'
p274
sS'upload'
p275
(dp276
S'speed'
p277
S'19200'
p278
sS'maximum_size'
p279
S'14336'
p280
sS'protocol'
p281
S'arduino'
p282
ssaa(lp283
S'mega2560'
p284
a(dp285
S'build'
p286
(dp287
S'core'
p288
S'arduino'
p289
sS'mcu'
p290
S'atmega2560'
p291
sS'f_cpu'
p292
S'16000000L'
p293
sS'variant'
p294
S'mega'
p295
ssS'bootloader'
p296
(dp297
S'extended_fuses'
p298
S'0xFD'
p299
sS'high_fuses'
p300
S'0xD8'
p301
sS'low_fuses'
p302
S'0xFF'
p303
sS'lock_bits'
p304
S'0x0F'
p305
sS'file'
p306
S'stk500boot_v2_mega2560.hex'
p307
sS'path'
p308
S'stk500v2'
p309
sS'unlock_bits'
p310
S'0x3F'
p311
ssS'name'
p312
S'Arduino Mega 2560 or Mega ADK'
p313
sS'upload'
p314
(dp315
S'speed'
p316
S'115200'
p317
sS'maximum_size'
p318
S'258048'
p319
sS'protocol'
p320
S'wiring'
p321
ssaa(lp322
S'mega'
p323
a(dp324
S'build'
p325
(dp326
S'core'
p327
S'arduino'
p328
sS'mcu'
p329
S'atmega1280'
p330
sS'f_cpu'
p331
S'16000000L'
p332
sS'variant'
p333
S'mega'
p334
ssS'bootloader'
p335
(dp336
S'extended_fuses'
p337
S'0xF5'
p338
sS'high_fuses'
p339
S'0xDA'
p340
sS'low_fuses'
p341
S'0xFF'
p342
sS'lock_bits'
p343
S'0x0F'
p344
sS'file'
p345
S'ATmegaBOOT_168_atmega1280.hex'
p346
sS'path'
p347
S'atmega'
p348
sS'unlock_bits'
p349
S'0x3F'
p350
ssS'name'
p351
S'Arduino Mega (ATmega1280)'
p352
sS'upload'
p353
(dp354
S'speed'
p355
S'57600'
p356
sS'maximum_size'
p357
S'126976'
p358
sS'protocol'
p359
S'arduino'
p360
ssaa(lp361
S'leonardo'
p362
a(dp363
S'build'
p364
(dp365
S'core'
p366
S'arduino'
p367
sS'f_cpu'
p368
S'16000000L'
p369
sS'vid'
p370
S'0x2341'
p371
sS'pid'
p372
S'0x8036'
p373
sS'variant'
p374
S'leonardo'
p375
sS'mcu'
p376
S'atmega32u4'
p377
ssS'bootloader'
p378
(dp379
S'extended_fuses'
p380
S'0xcb'
p381
sS'high_fuses'
p382
S'0xd8'
p383
sS'low_fuses'
p384
S'0xff'
p385
sS'lock_bits'
p386
S'0x2F'
p387
sS'file'
p388
S'Caterina-Leonardo.hex'
p389
sS'path'
p390
S'caterina'
p391
sS'unlock_bits'
p392
S'0x3F'
p393
ssS'name'
p394
S'Arduino Leonardo'
p395
sS'upload'
p396
(dp397
S'speed'
p398
S'57600'
p399
sS'maximum_size'
p400
S'28672'
p401
sS'protocol'
p402
S'avr109'
p403
sS'disable_flushing'
p404
S'true'
p405
ssaa(lp406
S'esplora'
p407
a(dp408
S'build'
p409
(dp410
S'core'
p411
S'arduino'
p412
sS'f_cpu'
p413
S'16000000L'
p414
sS'vid'
p415
S'0x2341'
p416
sS'pid'
p417
S'0x803C'
p418
sS'variant'
p419
S'leonardo'
p420
sS'mcu'
p421
S'atmega32u4'
p422
ssS'bootloader'
p423
(dp424
S'extended_fuses'
p425
S'0xcb'
p426
sS'high_fuses'
p427
S'0xd8'
p428
sS'low_fuses'
p429
S'0xff'
p430
sS'lock_bits'
p431
S'0x2F'
p432
sS'file'
p433
S'Caterina-Esplora.hex'
p434
sS'path'
p435
S'caterina'
p436
sS'unlock_bits'
p437
S'0x3F'
p438
ssS'name'
p439
S'Arduino Esplora'
p440
sS'upload'
p441
(dp442
S'speed'
p443
S'57600'
p444
sS'maximum_size'
p445
S'28672'
p446
sS'protocol'
p447
S'avr109'
p448
sS'disable_flushing'
p449
S'true'
p450
ssaa(lp451
S'micro'
p452
a(dp453
S'build'
p454
(dp455
S'core'
p456
S'arduino'
p457
sS'f_cpu'
p458
S'16000000L'
p459
sS'vid'
p460
S'0x2341'
p461
sS'pid'
p462
S'0x8037'
p463
sS'variant'
p464
S'micro'
p465
sS'mcu'
p466
S'atmega32u4'
p467
ssS'bootloader'
p468
(dp469
S'extended_fuses'
p470
S'0xcb'
p471
sS'high_fuses'
p472
S'0xd8'
p473
sS'low_fuses'
p474
S'0xff'
p475
sS'lock_bits'
p476
S'0x2F'
p477
sS'file'
p478
S'Caterina-Micro.hex'
p479
sS'path'
p480
S'caterina'
p481
sS'unlock_bits'
p482
S'0x3F'
p483
ssS'name'
p484
S'Arduino Micro'
p485
sS'upload'
p486
(dp487
S'speed'
p488
S'57600'
p489
sS'maximum_size'
p490
S'28672'
p491
sS'protocol'
p492
S'avr109'
p493
sS'disable_flushing'
p494
S'true'
p495
ssaa(lp496
S'mini328'
p497
a(dp498
S'build'
p499
(dp500
S'core'
p501
S'arduino'
p502
sS'mcu'
p503
S'atmega328p'
p504
sS'f_cpu'
p505
S'16000000L'
p506
sS'variant'
p507
S'eightanaloginputs'
p508
ssS'bootloader'
p509
(dp510
S'extended_fuses'
p511
S'0x05'
p512
sS'high_fuses'
p513
S'0xd8'
p514
sS'low_fuses'
p515
S'0xff'
p516
sS'lock_bits'
p517
S'0x0F'
p518
sS'file'
p519
S'optiboot_atmega328-Mini.hex'
p520
sS'path'
p521
S'optiboot'
p522
sS'unlock_bits'
p523
S'0x3F'
p524
ssS'name'
p525
S'Arduino Mini w/ ATmega328'
p526
sS'upload'
p527
(dp528
S'speed'
p529
S'115200'
p530
sS'maximum_size'
p531
S'28672'
p532
sS'protocol'
p533
S'arduino'
p534
ssaa(lp535
S'mini'
p536
a(dp537
S'build'
p538
(dp539
S'core'
p540
S'arduino'
p541
sS'mcu'
p542
S'atmega168'
p543
sS'f_cpu'
p544
S'16000000L'
p545
sS'variant'
p546
S'eightanaloginputs'
p547
ssS'bootloader'
p548
(dp549
S'extended_fuses'
p550
S'0x00'
p551
sS'high_fuses'
p552
S'0xdd'
p553
sS'low_fuses'
p554
S'0xff'
p555
sS'lock_bits'
p556
S'0x0F'
p557
sS'file'
p558
S'ATmegaBOOT_168_ng.hex'
p559
sS'path'
p560
S'atmega'
p561
sS'unlock_bits'
p562
S'0x3F'
p563
ssS'name'
p564
S'Arduino Mini w/ ATmega168'
p565
sS'upload'
p566
(dp567
S'speed'
p568
S'19200'
p569
sS'maximum_size'
p570
S'14336'
p571
sS'protocol'
p572
S'arduino'
p573
ssaa(lp574
S'ethernet'
p575
a(dp576
S'build'
p577
(dp578
S'f_cpu'
p579
S'16000000L'
p580
sS'mcu'
p581
S'atmega328p'
p582
sS'variant'
p583
S'standard'
p584
sS'core'
p585
S'arduino'
p586
ssS'bootloader'
p587
(dp588
S'extended_fuses'
p589
S'0x05'
p590
sS'high_fuses'
p591
S'0xde'
p592
sS'low_fuses'
p593
S'0xff'
p594
sS'lock_bits'
p595
S'0x0F'
p596
sS'file'
p597
S'optiboot_atmega328.hex'
p598
sS'path'
p599
S'optiboot'
p600
sS'unlock_bits'
p601
S'0x3F'
p602
ssS'name'
p603
S'Arduino Ethernet'
p604
sS'upload'
p605
(dp606
S'speed'
p607
S'115200'
p608
sS'maximum_size'
p609
S'32256'
p610
sS'protocol'
p611
S'arduino'
p612
ssaa(lp613
S'fio'
p614
a(dp615
S'build'
p616
(dp617
S'core'
p618
S'arduino'
p619
sS'mcu'
p620
S'atmega328p'
p621
sS'f_cpu'
p622
S'8000000L'
p623
sS'variant'
p624
S'eightanaloginputs'
p625
ssS'bootloader'
p626
(dp627
S'extended_fuses'
p628
S'0x05'
p629
sS'high_fuses'
p630
S'0xDA'
p631
sS'low_fuses'
p632
S'0xFF'
p633
sS'lock_bits'
p634
S'0x0F'
p635
sS'file'
p636
S'ATmegaBOOT_168_atmega328_pro_8MHz.hex'
p637
sS'path'
p638
S'arduino:atmega'
p639
sS'unlock_bits'
p640
S'0x3F'
p641
ssS'name'
p642
S'Arduino Fio'
p643
sS'upload'
p644
(dp645
S'speed'
p646
S'57600'
p647
sS'maximum_size'
p648
S'30720'
p649
sS'protocol'
p650
S'arduino'
p651
ssaa(lp652
S'bt328'
p653
a(dp654
S'build'
p655
(dp656
S'core'
p657
S'arduino'
p658
sS'mcu'
p659
S'atmega328p'
p660
sS'f_cpu'
p661
S'16000000L'
p662
sS'variant'
p663
S'eightanaloginputs'
p664
ssS'bootloader'
p665
(dp666
S'extended_fuses'
p667
S'0x05'
p668
sS'high_fuses'
p669
S'0xd8'
p670
sS'low_fuses'
p671
S'0xff'
p672
sS'lock_bits'
p673
S'0x0F'
p674
sS'file'
p675
S'ATmegaBOOT_168_atmega328_bt.hex'
p676
sS'path'
p677
S'bt'
p678
sS'unlock_bits'
p679
S'0x3F'
p680
ssS'name'
p681
S'Arduino BT w/ ATmega328'
p682
sS'upload'
p683
(dp684
S'speed'
p685
S'19200'
p686
sS'maximum_size'
p687
S'28672'
p688
sS'protocol'
p689
S'arduino'
p690
sS'disable_flushing'
p691
S'true'
p692
ssaa(lp693
S'bt'
p694
a(dp695
S'build'
p696
(dp697
S'core'
p698
S'arduino'
p699
sS'mcu'
p700
S'atmega168'
p701
sS'f_cpu'
p702
S'16000000L'
p703
sS'variant'
p704
S'eightanaloginputs'
p705
ssS'bootloader'
p706
(dp707
S'extended_fuses'
p708
S'0x00'
p709
sS'high_fuses'
p710
S'0xdd'
p711
sS'low_fuses'
p712
S'0xff'
p713
sS'lock_bits'
p714
S'0x0F'
p715
sS'file'
p716
S'ATmegaBOOT_168.hex'
p717
sS'path'
p718
S'bt'
p719
sS'unlock_bits'
p720
S'0x3F'
p721
ssS'name'
p722
S'Arduino BT w/ ATmega168'
p723
sS'upload'
p724
(dp725
S'speed'
p726
S'19200'
p727
sS'maximum_size'
p728
S'14336'
p729
sS'protocol'
p730
S'arduino'
p731
sS'disable_flushing'
p732
S'true'
p733
ssaa(lp734
S'LilyPadUSB'
p735
a(dp736
S'build'
p737
(dp738
S'core'
p739
S'arduino'
p740
sS'f_cpu'
p741
S'8000000L'
p742
sS'vid'
p743
S'0x1B4F'
p744
sS'pid'
p745
S'0x9208'
p746
sS'variant'
p747
S'leonardo'
p748
sS'mcu'
p749
S'atmega32u4'
p750
ssS'bootloader'
p751
(dp752
S'extended_fuses'
p753
S'0xce'
p754
sS'high_fuses'
p755
S'0xd8'
p756
sS'low_fuses'
p757
S'0xff'
p758
sS'lock_bits'
p759
S'0x2F'
p760
sS'file'
p761
S'Caterina-LilyPadUSB.hex'
p762
sS'path'
p763
S'caterina-LilyPadUSB'
p764
sS'unlock_bits'
p765
S'0x3F'
p766
ssS'name'
p767
S'LilyPad Arduino USB'
p768
sS'upload'
p769
(dp770
S'speed'
p771
S'57600'
p772
sS'maximum_size'
p773
S'28672'
p774
sS'protocol'
p775
S'avr109'
p776
sS'disable_flushing'
p777
S'true'
p778
ssaa(lp779
S'lilypad328'
p780
a(dp781
S'build'
p782
(dp783
S'core'
p784
S'arduino'
p785
sS'mcu'
p786
S'atmega328p'
p787
sS'f_cpu'
p788
S'8000000L'
p789
sS'variant'
p790
S'standard'
p791
ssS'bootloader'
p792
(dp793
S'extended_fuses'
p794
S'0x05'
p795
sS'high_fuses'
p796
S'0xDA'
p797
sS'low_fuses'
p798
S'0xFF'
p799
sS'lock_bits'
p800
S'0x0F'
p801
sS'file'
p802
S'ATmegaBOOT_168_atmega328_pro_8MHz.hex'
p803
sS'path'
p804
S'atmega'
p805
sS'unlock_bits'
p806
S'0x3F'
p807
ssS'name'
p808
S'LilyPad Arduino w/ ATmega328'
p809
sS'upload'
p810
(dp811
S'speed'
p812
S'57600'
p813
sS'maximum_size'
p814
S'30720'
p815
sS'protocol'
p816
S'arduino'
p817
ssaa(lp818
S'lilypad'
p819
a(dp820
S'build'
p821
(dp822
S'core'
p823
S'arduino'
p824
sS'mcu'
p825
S'atmega168'
p826
sS'f_cpu'
p827
S'8000000L'
p828
sS'variant'
p829
S'standard'
p830
ssS'bootloader'
p831
(dp832
S'extended_fuses'
p833
S'0x00'
p834
sS'high_fuses'
p835
S'0xdd'
p836
sS'low_fuses'
p837
S'0xe2'
p838
sS'lock_bits'
p839
S'0x0F'
p840
sS'file'
p841
S'LilyPadBOOT_168.hex'
p842
sS'path'
p843
S'lilypad'
p844
sS'unlock_bits'
p845
S'0x3F'
p846
ssS'name'
p847
S'LilyPad Arduino w/ ATmega168'
p848
sS'upload'
p849
(dp850
S'speed'
p851
S'19200'
p852
sS'maximum_size'
p853
S'14336'
p854
sS'protocol'
p855
S'arduino'
p856
ssaa(lp857
S'pro5v328'
p858
a(dp859
S'build'
p860
(dp861
S'core'
p862
S'arduino'
p863
sS'mcu'
p864
S'atmega328p'
p865
sS'f_cpu'
p866
S'16000000L'
p867
sS'variant'
p868
S'standard'
p869
ssS'bootloader'
p870
(dp871
S'extended_fuses'
p872
S'0x05'
p873
sS'high_fuses'
p874
S'0xDA'
p875
sS'low_fuses'
p876
S'0xFF'
p877
sS'lock_bits'
p878
S'0x0F'
p879
sS'file'
p880
S'ATmegaBOOT_168_atmega328.hex'
p881
sS'path'
p882
S'atmega'
p883
sS'unlock_bits'
p884
S'0x3F'
p885
ssS'name'
p886
S'Arduino Pro or Pro Mini (5V, 16 MHz) w/ ATmega328'
p887
sS'upload'
p888
(dp889
S'speed'
p890
S'57600'
p891
sS'maximum_size'
p892
S'30720'
p893
sS'protocol'
p894
S'arduino'
p895
ssaa(lp896
S'pro5v'
p897
a(dp898
S'build'
p899
(dp900
S'core'
p901
S'arduino'
p902
sS'mcu'
p903
S'atmega168'
p904
sS'f_cpu'
p905
S'16000000L'
p906
sS'variant'
p907
S'standard'
p908
ssS'bootloader'
p909
(dp910
S'extended_fuses'
p911
S'0x00'
p912
sS'high_fuses'
p913
S'0xdd'
p914
sS'low_fuses'
p915
S'0xff'
p916
sS'lock_bits'
p917
S'0x0F'
p918
sS'file'
p919
S'ATmegaBOOT_168_diecimila.hex'
p920
sS'path'
p921
S'atmega'
p922
sS'unlock_bits'
p923
S'0x3F'
p924
ssS'name'
p925
S'Arduino Pro or Pro Mini (5V, 16 MHz) w/ ATmega168'
p926
sS'upload'
p927
(dp928
S'speed'
p929
S'19200'
p930
sS'maximum_size'
p931
S'14336'
p932
sS'protocol'
p933
S'arduino'
p934
ssaa(lp935
S'pro328'
p936
a(dp937
S'build'
p938
(dp939
S'core'
p940
S'arduino'
p941
sS'mcu'
p942
S'atmega328p'
p943
sS'f_cpu'
p944
S'8000000L'
p945
sS'variant'
p946
S'standard'
p947
ssS'bootloader'
p948
(dp949
S'extended_fuses'
p950
S'0x05'
p951
sS'high_fuses'
p952
S'0xDA'
p953
sS'low_fuses'
p954
S'0xFF'
p955
sS'lock_bits'
p956
S'0x0F'
p957
sS'file'
p958
S'ATmegaBOOT_168_atmega328_pro_8MHz.hex'
p959
sS'path'
p960
S'atmega'
p961
sS'unlock_bits'
p962
S'0x3F'
p963
ssS'name'
p964
S'Arduino Pro or Pro Mini (3.3V, 8 MHz) w/ ATmega328'
p965
sS'upload'
p966
(dp967
S'speed'
p968
S'57600'
p969
sS'maximum_size'
p970
S'30720'
p971
sS'protocol'
p972
S'arduino'
p973
ssaa(lp974
S'pro'
p975
a(dp976
S'build'
p977
(dp978
S'core'
p979
S'arduino'
p980
sS'mcu'
p981
S'atmega168'
p982
sS'f_cpu'
p983
S'8000000L'
p984
sS'variant'
p985
S'standard'
p986
ssS'bootloader'
p987
(dp988
S'extended_fuses'
p989
S'0x00'
p990
sS'high_fuses'
p991
S'0xdd'
p992
sS'low_fuses'
p993
S'0xc6'
p994
sS'lock_bits'
p995
S'0x0F'
p996
sS'file'
p997
S'ATmegaBOOT_168_pro_8MHz.hex'
p998
sS'path'
p999
S'atmega'
p1000
sS'unlock_bits'
p1001
S'0x3F'
p1002
ssS'name'
p1003
S'Arduino Pro or Pro Mini (3.3V, 8 MHz) w/ ATmega168'
p1004
sS'upload'
p1005
(dp1006
S'speed'
p1007
S'19200'
p1008
sS'maximum_size'
p1009
S'14336'
p1010
sS'protocol'
p1011
S'arduino'
p1012
ssaa(lp1013
S'atmega168'
p1014
a(dp1015
S'build'
p1016
(dp1017
S'core'
p1018
S'arduino'
p1019
sS'mcu'
p1020
S'atmega168'
p1021
sS'f_cpu'
p1022
S'16000000L'
p1023
sS'variant'
p1024
S'standard'
p1025
ssS'bootloader'
p1026
(dp1027
S'extended_fuses'
p1028
S'0x00'
p1029
sS'high_fuses'
p1030
S'0xdd'
p1031
sS'low_fuses'
p1032
S'0xff'
p1033
sS'lock_bits'
p1034
S'0x0F'
p1035
sS'file'
p1036
S'ATmegaBOOT_168_ng.hex'
p1037
sS'path'
p1038
S'atmega'
p1039
sS'unlock_bits'
p1040
S'0x3F'
p1041
ssS'name'
p1042
S'Arduino NG or older w/ ATmega168'
p1043
sS'upload'
p1044
(dp1045
S'speed'
p1046
S'19200'
p1047
sS'maximum_size'
p1048
S'14336'
p1049
sS'protocol'
p1050
S'arduino'
p1051
ssaa(lp1052
S'atmega8'
p1053
a(dp1054
S'build'
p1055
(dp1056
S'core'
p1057
S'arduino'
p1058
sS'mcu'
p1059
S'atmega8'
p1060
sS'f_cpu'
p1061
S'16000000L'
p1062
sS'variant'
p1063
S'standard'
p1064
ssS'bootloader'
p1065
(dp1066
S'high_fuses'
p1067
S'0xca'
p1068
sS'low_fuses'
p1069
S'0xdf'
p1070
sS'lock_bits'
p1071
S'0x0F'
p1072
sS'file'
p1073
S'ATmegaBOOT-prod-firmware-2009-11-07.hex'
p1074
sS'path'
p1075
S'atmega8'
p1076
sS'unlock_bits'
p1077
S'0x3F'
p1078
ssS'name'
p1079
S'Arduino NG or older w/ ATmega8'
p1080
sS'upload'
p1081
(dp1082
S'speed'
p1083
S'19200'
p1084
sS'maximum_size'
p1085
S'7168'
p1086
sS'protocol'
p1087
S'arduino'
p1088
ssaa(lp1089
S'robotControl'
p1090
a(dp1091
S'build'
p1092
(dp1093
S'core'
p1094
S'robot'
p1095
sS'f_cpu'
p1096
S'16000000L'
p1097
sS'vid'
p1098
S'0x2341'
p1099
sS'pid'
p1100
S'0x8038'
p1101
sS'variant'
p1102
S'robot_control'
p1103
sS'mcu'
p1104
S'atmega32u4'
p1105
ssS'bootloader'
p1106
(dp1107
S'extended_fuses'
p1108
S'0xcb'
p1109
sS'high_fuses'
p1110
S'0xd8'
p1111
sS'low_fuses'
p1112
S'0xff'
p1113
sS'lock_bits'
p1114
S'0x2F'
p1115
sS'file'
p1116
S'Caterina-Robot-Control.hex'
p1117
sS'path'
p1118
S'caterina-Arduino_Robot'
p1119
sS'unlock_bits'
p1120
S'0x3F'
p1121
ssS'name'
p1122
S'Arduino Robot Control'
p1123
sS'upload'
p1124
(dp1125
S'speed'
p1126
S'57600'
p1127
sS'maximum_size'
p1128
S'28672'
p1129
sS'protocol'
p1130
S'avr109'
p1131
sS'disable_flushing'
p1132
S'true'
p1133
ssaa(lp1134
S'robotMotor'
p1135
a(dp1136
S'build'
p1137
(dp1138
S'core'
p1139
S'robot'
p1140
sS'f_cpu'
p1141
S'16000000L'
p1142
sS'vid'
p1143
S'0x2341'
p1144
sS'pid'
p1145
S'0x8039'
p1146
sS'variant'
p1147
S'robot_motor'
p1148
sS'mcu'
p1149
S'atmega32u4'
p1150
ssS'bootloader'
p1151
(dp1152
S'extended_fuses'
p1153
S'0xcb'
p1154
sS'high_fuses'
p1155
S'0xd8'
p1156
sS'low_fuses'
p1157
S'0xff'
p1158
sS'lock_bits'
p1159
S'0x2F'
p1160
sS'file'
p1161
S'Caterina-Robot-Motor.hex'
p1162
sS'path'
p1163
S'caterina-Arduino_Robot'
p1164
sS'unlock_bits'
p1165
S'0x3F'
p1166
ssS'name'
p1167
S'Arduino Robot Motor'
p1168
sS'upload'
p1169
(dp1170
S'speed'
p1171
S'57600'
p1172
sS'maximum_size'
p1173
S'28672'
p1174
sS'protocol'
p1175
S'avr109'
p1176
sS'disable_flushing'
p1177
S'true'
p1178
ssaatp1179
Rp1180
(dp1181
S'default'
p1182
S'uno'
p1183
sbtp1184
a(S'cxx'
p1185
S'/usr/share/arduino/hardware/tools/avr/bin/avr-g++'
p1186
tp1187
a.